; Function Attrs: nounwind uwtable
define hidden noundef i32 @mbedtls_ripemd160(ptr noundef readonly captures(none) %0, i64 noundef %1, ptr noundef writeonly captures(none) %2) local_unnamed_addr #2 {
  %4 = alloca %struct.mbedtls_ripemd160_context, align 4
  call void @llvm.lifetime.start.p0(i64 92, ptr nonnull %4) #11
  %5 = getelementptr inbounds nuw i8, ptr %4, i64 8
  call void @llvm.memset.p0.i64(ptr noundef nonnull align 4 dereferenceable(92) %4, i8 0, i64 92, i1 false)
  store i32 1732584193, ptr %5, align 4, !tbaa !7
  %6 = getelementptr inbounds nuw i8, ptr %4, i64 12
  store i32 -271733879, ptr %6, align 4, !tbaa !7
  %7 = getelementptr inbounds nuw i8, ptr %4, i64 16
  store i32 -1732584194, ptr %7, align 4, !tbaa !7
  %8 = getelementptr inbounds nuw i8, ptr %4, i64 20
  store i32 271733878, ptr %8, align 4, !tbaa !7
  %9 = getelementptr inbounds nuw i8, ptr %4, i64 24
  store i32 -1009589776, ptr %9, align 4, !tbaa !7
  %10 = icmp eq i64 %1, 0
  br i1 %10, label %mbedtls_ripemd160_update.exit, label %11

11:                                               ; preds = %3
  %12 = trunc i64 %1 to i32
  store i32 %12, ptr %4, align 4, !tbaa !7
  %13 = icmp ugt i64 %1, 63
  br i1 %13, label %.lr.ph.i, label %._crit_edge.thread.i

.lr.ph.i:                                         ; preds = %11, %.lr.ph.i
  %.147.i = phi i64 [ %16, %.lr.ph.i ], [ %1, %11 ]
  %.13746.i = phi ptr [ %15, %.lr.ph.i ], [ %0, %11 ]
  %14 = call i32 @mbedtls_internal_ripemd160_process(ptr noundef nonnull %4, ptr noundef %.13746.i)
  %15 = getelementptr inbounds nuw i8, ptr %.13746.i, i64 64
  %16 = add i64 %.147.i, -64
  %17 = icmp ugt i64 %16, 63
  br i1 %17, label %.lr.ph.i, label %._crit_edge.i, !llvm.loop !20

._crit_edge.i:                                    ; preds = %.lr.ph.i
  %.not45.i = icmp eq i64 %16, 0
  br i1 %.not45.i, label %mbedtls_ripemd160_update.exit, label %._crit_edge.thread.i

._crit_edge.thread.i:                             ; preds = %11, %._crit_edge.i
  %.1.lcssa.i9 = phi i64 [ %16, %._crit_edge.i ], [ %1, %11 ]
  %.137.lcssa.i8 = phi ptr [ %15, %._crit_edge.i ], [ %0, %11 ]
  %18 = getelementptr inbounds nuw i8, ptr %4, i64 28
  call void @llvm.memcpy.p0.p0.i64(ptr nonnull align 4 %18, ptr align 1 %.137.lcssa.i8, i64 %.1.lcssa.i9, i1 false)
  br label %mbedtls_ripemd160_update.exit

mbedtls_ripemd160_update.exit:                    ; preds = %3, %._crit_edge.i, %._crit_edge.thread.i
  %19 = call i32 @mbedtls_ripemd160_finish(ptr noundef nonnull %4, ptr noundef %2)
  call void @mbedtls_platform_zeroize(ptr noundef nonnull %4, i64 noundef 92) #11
  call void @llvm.lifetime.end.p0(i64 92, ptr nonnull %4) #11
  ret i32 0
}